; Function Attrs: nounwind uwtable
define dso_local noundef i64 @spg_poly_quad_compress(ptr noundef readonly captures(none) %0) local_unnamed_addr #2 {
  %2 = getelementptr inbounds nuw i8, ptr %0, i64 32
  %3 = load i64, ptr %2, align 8
  %4 = inttoptr i64 %3 to ptr
  %5 = tail call ptr @pg_detoast_datum(ptr noundef %4) #8
  %6 = tail call ptr @palloc(i64 noundef 32) #8
  %7 = getelementptr inbounds nuw i8, ptr %5, i64 8
  tail call void @llvm.memcpy.p0.p0.i64(ptr noundef nonnull align 8 dereferenceable(32) %6, ptr noundef nonnull align 8 dereferenceable(32) %7, i64 32, i1 false)
  %8 = ptrtoint ptr %6 to i64
  ret i64 %8
}